target datalayout = "e-m:e-p270:32:32-p271:32:32-p272:64:64-i64:64-i128:128-f80:128-n8:16:32:64-S128"
target triple = "x86_64-pc-linux-gnu"

%struct._dcerpc_info = type { ptr, i32, i64, i8, i8, i8, i32, i32, i32, i32, i32, i32, i32, i32, ptr, ptr, ptr, ptr, %struct.anon }
%struct.anon = type { i8, ptr, ptr, ptr, i8 }
%struct._packet_info = type { ptr, ptr, i32, i32, %struct.nstime_t, %struct.nstime_t, %struct.nstime_t, i8, ptr, ptr, ptr, ptr, %struct._address, %struct._address, %struct._address, %struct._address, %struct._address, %struct._address, i32, ptr, i8, [3 x i8], %struct.anon.0, i32, i32, i32, i32, ptr, i8, ptr, ptr, i16, i16, i32, i32, i16, i32, i32, ptr, ptr, ptr, i8, i8, i16, i16, i16, i32, i16, i16, ptr, ptr, ptr, ptr, ptr, i32, i32 }
%struct.nstime_t = type { i64, i32 }
%struct._address = type { i32, i32, ptr, ptr }
%struct.anon.0 = type { i8, [3 x i8] }

@hf_fileexp_offsetp_high = internal global i32 0, align 4
@hf_fileexp_offsetp_low = internal global i32 0, align 4
@hf_fileexp_bulkfetchstatus_size = internal global i32 0, align 4
@.str.376 = private unnamed_addr constant [9 x i8] c"afsFid: \00", align 1
@.str.377 = private unnamed_addr constant [8 x i8] c"MinVVp:\00", align 1
@.str.501 = private unnamed_addr constant [15 x i8] c" Offsetp:%u/%u\00", align 1

; Function Attrs: null_pointer_is_valid sspstrong uwtable
define internal i32 @fileexp_dissect_bulkfetchstatus_rqst(ptr noundef %0, i32 noundef %1, ptr noundef %2, ptr noundef %3, ptr noundef %4, ptr noundef %5) #0 {
  %7 = alloca i32, align 4
  %8 = alloca ptr, align 8
  %9 = alloca i32, align 4
  %10 = alloca ptr, align 8
  %11 = alloca ptr, align 8
  %12 = alloca ptr, align 8
  %13 = alloca ptr, align 8
  %14 = alloca i32, align 4
  %15 = alloca i32, align 4
  %16 = alloca i32, align 4
  %17 = alloca i32, align 4
  store ptr %0, ptr %8, align 8
  store i32 %1, ptr %9, align 4
  store ptr %2, ptr %10, align 8
  store ptr %3, ptr %11, align 8
  store ptr %4, ptr %12, align 8
  store ptr %5, ptr %13, align 8
  call void @llvm.lifetime.start.p0(i64 4, ptr %14) #4
  call void @llvm.lifetime.start.p0(i64 4, ptr %15) #4
  call void @llvm.lifetime.start.p0(i64 4, ptr %16) #4
  %18 = load ptr, ptr %12, align 8
  %19 = getelementptr inbounds nuw %struct._dcerpc_info, ptr %18, i32 0, i32 4
  %20 = load i8, ptr %19, align 1, !range !6, !noundef !7
  %21 = trunc i8 %20 to i1
  br i1 %21, label %22, label %24

22:                                               ; preds = %6
  %23 = load i32, ptr %9, align 4
  store i32 %23, ptr %7, align 4
  store i32 1, ptr %17, align 4
  br label %76

24:                                               ; preds = %6
  %25 = load ptr, ptr %8, align 8
  %26 = load i32, ptr %9, align 4
  %27 = load ptr, ptr %10, align 8
  %28 = load ptr, ptr %11, align 8
  %29 = load ptr, ptr %12, align 8
  %30 = load ptr, ptr %13, align 8
  %31 = call i32 @dissect_ndr_pointer(ptr noundef %25, i32 noundef %26, ptr noundef %27, ptr noundef %28, ptr noundef %29, ptr noundef %30, ptr noundef @dissect_afsFid, i32 noundef 1, ptr noundef @.str.376, i32 noundef -1)
  store i32 %31, ptr %9, align 4
  %32 = load ptr, ptr %8, align 8
  %33 = load i32, ptr %9, align 4
  %34 = load ptr, ptr %10, align 8
  %35 = load ptr, ptr %11, align 8
  %36 = load ptr, ptr %12, align 8
  %37 = load ptr, ptr %13, align 8
  %38 = load i32, ptr @hf_fileexp_offsetp_high, align 4
  %39 = call i32 @dissect_ndr_uint32(ptr noundef %32, i32 noundef %33, ptr noundef %34, ptr noundef %35, ptr noundef %36, ptr noundef %37, i32 noundef %38, ptr noundef %14)
  store i32 %39, ptr %9, align 4
  %40 = load ptr, ptr %8, align 8
  %41 = load i32, ptr %9, align 4
  %42 = load ptr, ptr %10, align 8
  %43 = load ptr, ptr %11, align 8
  %44 = load ptr, ptr %12, align 8
  %45 = load ptr, ptr %13, align 8
  %46 = load i32, ptr @hf_fileexp_offsetp_low, align 4
  %47 = call i32 @dissect_ndr_uint32(ptr noundef %40, i32 noundef %41, ptr noundef %42, ptr noundef %43, ptr noundef %44, ptr noundef %45, i32 noundef %46, ptr noundef %15)
  store i32 %47, ptr %9, align 4
  %48 = load ptr, ptr %10, align 8
  %49 = getelementptr inbounds nuw %struct._packet_info, ptr %48, i32 0, i32 1
  %50 = load ptr, ptr %49, align 8
  %51 = load i32, ptr %14, align 4
  %52 = load i32, ptr %15, align 4
  call void (ptr, i32, ptr, ...) @col_append_fstr(ptr noundef %50, i32 noundef 25, ptr noundef @.str.501, i32 noundef %51, i32 noundef %52)
  %53 = load ptr, ptr %8, align 8
  %54 = load i32, ptr %9, align 4
  %55 = load ptr, ptr %10, align 8
  %56 = load ptr, ptr %11, align 8
  %57 = load ptr, ptr %12, align 8
  %58 = load ptr, ptr %13, align 8
  %59 = load i32, ptr @hf_fileexp_bulkfetchstatus_size, align 4
  %60 = call i32 @dissect_ndr_uint32(ptr noundef %53, i32 noundef %54, ptr noundef %55, ptr noundef %56, ptr noundef %57, ptr noundef %58, i32 noundef %59, ptr noundef %16)
  store i32 %60, ptr %9, align 4
  %61 = load ptr, ptr %8, align 8
  %62 = load i32, ptr %9, align 4
  %63 = load ptr, ptr %10, align 8
  %64 = load ptr, ptr %11, align 8
  %65 = load ptr, ptr %12, align 8
  %66 = load ptr, ptr %13, align 8
  %67 = call i32 @dissect_ndr_pointer(ptr noundef %61, i32 noundef %62, ptr noundef %63, ptr noundef %64, ptr noundef %65, ptr noundef %66, ptr noundef @dissect_minvvp, i32 noundef 1, ptr noundef @.str.377, i32 noundef -1)
  store i32 %67, ptr %9, align 4
  %68 = load ptr, ptr %8, align 8
  %69 = load i32, ptr %9, align 4
  %70 = load ptr, ptr %10, align 8
  %71 = load ptr, ptr %11, align 8
  %72 = load ptr, ptr %12, align 8
  %73 = load ptr, ptr %13, align 8
  %74 = call i32 @dissect_afsFlags(ptr noundef %68, i32 noundef %69, ptr noundef %70, ptr noundef %71, ptr noundef %72, ptr noundef %73)
  store i32 %74, ptr %9, align 4
  %75 = load i32, ptr %9, align 4
  store i32 %75, ptr %7, align 4
  store i32 1, ptr %17, align 4
  br label %76

76:                                               ; preds = %24, %22
  call void @llvm.lifetime.end.p0(i64 4, ptr %16) #4
  call void @llvm.lifetime.end.p0(i64 4, ptr %15) #4
  call void @llvm.lifetime.end.p0(i64 4, ptr %14) #4
  %77 = load i32, ptr %7, align 4
  ret i32 %77
}